ccopy_reg
_reconstructor
p1
(cneo.core.block
Block
p2
c__builtin__
object
p3
NtRp4
(dp5
S'index'
p6
NsS'description'
p7
VPopulation "population2"\u000a    Structure   : Line\u000a      y: 0.0\u000a      x0: 0.0\u000a      z: 0.0\u000a      dx: 1.0Local cells : 20\u000a    Cell type   : IF_cond_exp\u000a    ID range    : 537-556\u000a    First cell on this node:\u000a      ID: 537\u000a      
p8
sS'file_datetime'
p9
NsS'segments'
p10
(lp11
g1
(cneo.core.segment
Segment
p12
g3
NtRp13
(dp14
g6
NsS'analogsignals'
p15
(lp16
sS'spiketrains'
p17
(lp18
cneo.core.spiketrain
_new_spiketrain
p19
(cneo.core.spiketrain
SpikeTrain
p20
cnumpy.core.multiarray
_reconstruct
p21
(cnumpy
ndarray
p22
(I0
tS'b'
tRp23
(I1
(I0
tcnumpy
dtype
p24
(S'f8'
I0
I1
tRp25
(I3
S'<'
NNNI-1
I-1
I0
tbI00
S''
tbcquantities.quantity
_reconstruct_quantity
p26
(cquantities.quantity
Quantity
p27
g22
(I0
tp28
S'b'
tRp29
(I1
(tg25
I00
S'\x00\x00\x00\x00\x00t\xb3@'
g1
(cquantities.dimensionality
Dimensionality
p30
c__builtin__
dict
p31
(dp32
cquantities.unitquantity
UnitTime
p33
(S'millisecond'
p34
g26
(g27
g22
g28
S'b'
tRp35
(I1
(tg25
I00
S'\xfc\xa9\xf1\xd2MbP?'
g1
(g30
g31
(dp36
g33
(S'second'
p37
NS's'
N(lp38
S'sec'
p39
aS'seconds'
p40
aNtRp41
(I1
(I3
I0
tp42
tbI1
stRp43
tbS'ms'
p44
N(lp45
S'milliseconds'
p46
aNtRp47
(I1
(I3
I3
tp48
tbI1
stRp49
tbg26
(g27
g22
g28
S'b'
tRp50
(I1
(tg25
I00
S'\x00\x00\x00\x00\x00\x00\xf0?'
g1
(g30
g31
(dp51
g47
I1
stRp52
tbg25
I01
g26
(g27
g22
g28
S'b'
tRp53
(I1
(tg25
I00
S'\x00\x00\x00\x00\x00\x00\xf0?'
g1
(g30
g31
(dp54
cquantities.unitquantity
UnitQuantity
p55
(S'hertz'
p56
g26
(g27
g22
g28
S'b'
tRp57
(I1
(tg25
I00
S'\x00\x00\x00\x00\x00\x00\xf0?'
g1
(g30
g31
(dp58
g41
cnumpy.core.multiarray
scalar
p59
(g24
(S'i8'
I0
I1
tRp60
(I3
S'<'
NNNI-1
I-1
I0
tbS'\xff\xff\xff\xff\xff\xff\xff\xff'
tRp61
stRp62
tbS'Hz'
p63
N(lp64
NtRp65
(I1
(I90
I142
tp66
tbI1
stRp67
tbg26
(g27
g22
g28
S'b'
tRp68
(I1
(tg25
I00
S'\x00\x00\x00\x00\x00\x00\x00\x00'
g1
(g30
g31
(dp69
g47
I1
stRp70
tbNNNNN(dp71
S'source_id'
p72
I537
sS'source_population'
p73
S'population2'
p74
sS'source_index'
p75
I0
sNNtRp76
ag19
(g20
g21
(g22
(I0
tS'b'
tRp77
(I1
(I0
tg25
I00
S''
tbg26
(g27
g22
g28
S'b'
tRp78
(I1
(tg25
I00
S'\x00\x00\x00\x00\x00t\xb3@'
g1
(g30
g31
(dp79
g47
I1
stRp80
tbg26
(g27
g22
g28
S'b'
tRp81
(I1
(tg25
I00
S'\x00\x00\x00\x00\x00\x00\xf0?'
g1
(g30
g31
(dp82
g47
I1
stRp83
tbg25
I01
g53
g26
(g27
g22
g28
S'b'
tRp84
(I1
(tg25
I00
S'\x00\x00\x00\x00\x00\x00\x00\x00'
g1
(g30
g31
(dp85
g47
I1
stRp86
tbNNNNN(dp87
g72
I538
sg73
g74
sg75
I1
sNNtRp88
ag19
(g20
g21
(g22
(I0
tS'b'
tRp89
(I1
(I1
tg25
I00
S'\x00\x00\x00\x00\x00Z\xaf@'
tbg26
(g27
g22
g28
S'b'
tRp90
(I1
(tg25
I00
S'\x00\x00\x00\x00\x00t\xb3@'
g1
(g30
g31
(dp91
g47
I1
stRp92
tbg26
(g27
g22
g28
S'b'
tRp93
(I1
(tg25
I00
S'\x00\x00\x00\x00\x00\x00\xf0?'
g1
(g30
g31
(dp94
g47
I1
stRp95
tbg25
I01
g53
g26
(g27
g22
g28
S'b'
tRp96
(I1
(tg25
I00
S'\x00\x00\x00\x00\x00\x00\x00\x00'
g1
(g30
g31
(dp97
g47
I1
stRp98
tbNNNNN(dp99
g72
I539
sg73
g74
sg75
I2
sNNtRp100
ag19
(g20
g21
(g22
(I0
tS'b'
tRp101
(I1
(I1
tg25
I00
S'\x00\x00\x00\x00\x00\xc4\xa1@'
tbg26
(g27
g22
g28
S'b'
tRp102
(I1
(tg25
I00
S'\x00\x00\x00\x00\x00t\xb3@'
g1
(g30
g31
(dp103
g47
I1
stRp104
tbg26
(g27
g22
g28
S'b'
tRp105
(I1
(tg25
I00
S'\x00\x00\x00\x00\x00\x00\xf0?'
g1
(g30
g31
(dp106
g47
I1
stRp107
tbg25
I01
g53
g26
(g27
g22
g28
S'b'
tRp108
(I1
(tg25
I00
S'\x00\x00\x00\x00\x00\x00\x00\x00'
g1
(g30
g31
(dp109
g47
I1
stRp110
tbNNNNN(dp111
g72
I540
sg73
g74
sg75
I3
sNNtRp112
ag19
(g20
g21
(g22
(I0
tS'b'
tRp113
(I1
(I1
tg25
I00
S'\x00\x00\x00\x00\x00\xa0\x81@'
tbg26
(g27
g22
g28
S'b'
tRp114
(I1
(tg25
I00
S'\x00\x00\x00\x00\x00t\xb3@'
g1
(g30
g31
(dp115
g47
I1
stRp116
tbg26
(g27
g22
g28
S'b'
tRp117
(I1
(tg25
I00
S'\x00\x00\x00\x00\x00\x00\xf0?'
g1
(g30
g31
(dp118
g47
I1
stRp119
tbg25
I01
g53
g26
(g27
g22
g28
S'b'
tRp120
(I1
(tg25
I00
S'\x00\x00\x00\x00\x00\x00\x00\x00'
g1
(g30
g31
(dp121
g47
I1
stRp122
tbNNNNN(dp123
g72
I541
sg73
g74
sg75
I4
sNNtRp124
ag19
(g20
g21
(g22
(I0
tS'b'
tRp125
(I1
(I0
tg25
I00
S''
tbg26
(g27
g22
g28
S'b'
tRp126
(I1
(tg25
I00
S'\x00\x00\x00\x00\x00t\xb3@'
g1
(g30
g31
(dp127
g47
I1
stRp128
tbg26
(g27
g22
g28
S'b'
tRp129
(I1
(tg25
I00
S'\x00\x00\x00\x00\x00\x00\xf0?'
g1
(g30
g31
(dp130
g47
I1
stRp131
tbg25
I01
g53
g26
(g27
g22
g28
S'b'
tRp132
(I1
(tg25
I00
S'\x00\x00\x00\x00\x00\x00\x00\x00'
g1
(g30
g31
(dp133
g47
I1
stRp134
tbNNNNN(dp135
g72
I542
sg73
g74
sg75
I5
sNNtRp136
ag19
(g20
g21
(g22
(I0
tS'b'
tRp137
(I1
(I0
tg25
I00
S''
tbg26
(g27
g22
g28
S'b'
tRp138
(I1
(tg25
I00
S'\x00\x00\x00\x00\x00t\xb3@'
g1
(g30
g31
(dp139
g47
I1
stRp140
tbg26
(g27
g22
g28
S'b'
tRp141
(I1
(tg25
I00
S'\x00\x00\x00\x00\x00\x00\xf0?'
g1
(g30
g31
(dp142
g47
I1
stRp143
tbg25
I01
g53
g26
(g27
g22
g28
S'b'
tRp144
(I1
(tg25
I00
S'\x00\x00\x00\x00\x00\x00\x00\x00'
g1
(g30
g31
(dp145
g47
I1
stRp146
tbNNNNN(dp147
g72
I543
sg73
g74
sg75
I6
sNNtRp148
ag19
(g20
g21
(g22
(I0
tS'b'
tRp149
(I1
(I1
tg25
I00
S'\x00\x00\x00\x00\x00r\xa6@'
tbg26
(g27
g22
g28
S'b'
tRp150
(I1
(tg25
I00
S'\x00\x00\x00\x00\x00t\xb3@'
g1
(g30
g31
(dp151
g47
I1
stRp152
tbg26
(g27
g22
g28
S'b'
tRp153
(I1
(tg25
I00
S'\x00\x00\x00\x00\x00\x00\xf0?'
g1
(g30
g31
(dp154
g47
I1
stRp155
tbg25
I01
g53
g26
(g27
g22
g28
S'b'
tRp156
(I1
(tg25
I00
S'\x00\x00\x00\x00\x00\x00\x00\x00'
g1
(g30
g31
(dp157
g47
I1
stRp158
tbNNNNN(dp159
g72
I544
sg73
g74
sg75
I7
sNNtRp160
ag19
(g20
g21
(g22
(I0
tS'b'
tRp161
(I1
(I1
tg25
I00
S'\x00\x00\x00\x00\x00\xca\xb1@'
tbg26
(g27
g22
g28
S'b'
tRp162
(I1
(tg25
I00
S'\x00\x00\x00\x00\x00t\xb3@'
g1
(g30
g31
(dp163
g47
I1
stRp164
tbg26
(g27
g22
g28
S'b'
tRp165
(I1
(tg25
I00
S'\x00\x00\x00\x00\x00\x00\xf0?'
g1
(g30
g31
(dp166
g47
I1
stRp167
tbg25
I01
g53
g26
(g27
g22
g28
S'b'
tRp168
(I1
(tg25
I00
S'\x00\x00\x00\x00\x00\x00\x00\x00'
g1
(g30
g31
(dp169
g47
I1
stRp170
tbNNNNN(dp171
g72
I545
sg73
g74
sg75
I8
sNNtRp172
ag19
(g20
g21
(g22
(I0
tS'b'
tRp173
(I1
(I0
tg25
I00
S''
tbg26
(g27
g22
g28
S'b'
tRp174
(I1
(tg25
I00
S'\x00\x00\x00\x00\x00t\xb3@'
g1
(g30
g31
(dp175
g47
I1
stRp176
tbg26
(g27
g22
g28
S'b'
tRp177
(I1
(tg25
I00
S'\x00\x00\x00\x00\x00\x00\xf0?'
g1
(g30
g31
(dp178
g47
I1
stRp179
tbg25
I01
g53
g26
(g27
g22
g28
S'b'
tRp180
(I1
(tg25
I00
S'\x00\x00\x00\x00\x00\x00\x00\x00'
g1
(g30
g31
(dp181
g47
I1
stRp182
tbNNNNN(dp183
g72
I546
sg73
g74
sg75
I9
sNNtRp184
ag19
(g20
g21
(g22
(I0
tS'b'
tRp185
(I1
(I0
tg25
I00
S''
tbg26
(g27
g22
g28
S'b'
tRp186
(I1
(tg25
I00
S'\x00\x00\x00\x00\x00t\xb3@'
g1
(g30
g31
(dp187
g47
I1
stRp188
tbg26
(g27
g22
g28
S'b'
tRp189
(I1
(tg25
I00
S'\x00\x00\x00\x00\x00\x00\xf0?'
g1
(g30
g31
(dp190
g47
I1
stRp191
tbg25
I01
g53
g26
(g27
g22
g28
S'b'
tRp192
(I1
(tg25
I00
S'\x00\x00\x00\x00\x00\x00\x00\x00'
g1
(g30
g31
(dp193
g47
I1
stRp194
tbNNNNN(dp195
g72
I547
sg73
g74
sg75
I10
sNNtRp196
ag19
(g20
g21
(g22
(I0
tS'b'
tRp197
(I1
(I0
tg25
I00
S''
tbg26
(g27
g22
g28
S'b'
tRp198
(I1
(tg25
I00
S'\x00\x00\x00\x00\x00t\xb3@'
g1
(g30
g31
(dp199
g47
I1
stRp200
tbg26
(g27
g22
g28
S'b'
tRp201
(I1
(tg25
I00
S'\x00\x00\x00\x00\x00\x00\xf0?'
g1
(g30
g31
(dp202
g47
I1
stRp203
tbg25
I01
g53
g26
(g27
g22
g28
S'b'
tRp204
(I1
(tg25
I00
S'\x00\x00\x00\x00\x00\x00\x00\x00'
g1
(g30
g31
(dp205
g47
I1
stRp206
tbNNNNN(dp207
g72
I548
sg73
g74
sg75
I11
sNNtRp208
ag19
(g20
g21
(g22
(I0
tS'b'
tRp209
(I1
(I0
tg25
I00
S''
tbg26
(g27
g22
g28
S'b'
tRp210
(I1
(tg25
I00
S'\x00\x00\x00\x00\x00t\xb3@'
g1
(g30
g31
(dp211
g47
I1
stRp212
tbg26
(g27
g22
g28
S'b'
tRp213
(I1
(tg25
I00
S'\x00\x00\x00\x00\x00\x00\xf0?'
g1
(g30
g31
(dp214
g47
I1
stRp215
tbg25
I01
g53
g26
(g27
g22
g28
S'b'
tRp216
(I1
(tg25
I00
S'\x00\x00\x00\x00\x00\x00\x00\x00'
g1
(g30
g31
(dp217
g47
I1
stRp218
tbNNNNN(dp219
g72
I549
sg73
g74
sg75
I12
sNNtRp220
ag19
(g20
g21
(g22
(I0
tS'b'
tRp221
(I1
(I0
tg25
I00
S''
tbg26
(g27
g22
g28
S'b'
tRp222
(I1
(tg25
I00
S'\x00\x00\x00\x00\x00t\xb3@'
g1
(g30
g31
(dp223
g47
I1
stRp224
tbg26
(g27
g22
g28
S'b'
tRp225
(I1
(tg25
I00
S'\x00\x00\x00\x00\x00\x00\xf0?'
g1
(g30
g31
(dp226
g47
I1
stRp227
tbg25
I01
g53
g26
(g27
g22
g28
S'b'
tRp228
(I1
(tg25
I00
S'\x00\x00\x00\x00\x00\x00\x00\x00'
g1
(g30
g31
(dp229
g47
I1
stRp230
tbNNNNN(dp231
g72
I550
sg73
g74
sg75
I13
sNNtRp232
ag19
(g20
g21
(g22
(I0
tS'b'
tRp233
(I1
(I0
tg25
I00
S''
tbg26
(g27
g22
g28
S'b'
tRp234
(I1
(tg25
I00
S'\x00\x00\x00\x00\x00t\xb3@'
g1
(g30
g31
(dp235
g47
I1
stRp236
tbg26
(g27
g22
g28
S'b'
tRp237
(I1
(tg25
I00
S'\x00\x00\x00\x00\x00\x00\xf0?'
g1
(g30
g31
(dp238
g47
I1
stRp239
tbg25
I01
g53
g26
(g27
g22
g28
S'b'
tRp240
(I1
(tg25
I00
S'\x00\x00\x00\x00\x00\x00\x00\x00'
g1
(g30
g31
(dp241
g47
I1
stRp242
tbNNNNN(dp243
g72
I551
sg73
g74
sg75
I14
sNNtRp244
ag19
(g20
g21
(g22
(I0
tS'b'
tRp245
(I1
(I1
tg25
I00
S'\x00\x00\x00\x00\x00,\x92@'
tbg26
(g27
g22
g28
S'b'
tRp246
(I1
(tg25
I00
S'\x00\x00\x00\x00\x00t\xb3@'
g1
(g30
g31
(dp247
g47
I1
stRp248
tbg26
(g27
g22
g28
S'b'
tRp249
(I1
(tg25
I00
S'\x00\x00\x00\x00\x00\x00\xf0?'
g1
(g30
g31
(dp250
g47
I1
stRp251
tbg25
I01
g53
g26
(g27
g22
g28
S'b'
tRp252
(I1
(tg25
I00
S'\x00\x00\x00\x00\x00\x00\x00\x00'
g1
(g30
g31
(dp253
g47
I1
stRp254
tbNNNNN(dp255
g72
I552
sg73
g74
sg75
I15
sNNtRp256
ag19
(g20
g21
(g22
(I0
tS'b'
tRp257
(I1
(I0
tg25
I00
S''
tbg26
(g27
g22
g28
S'b'
tRp258
(I1
(tg25
I00
S'\x00\x00\x00\x00\x00t\xb3@'
g1
(g30
g31
(dp259
g47
I1
stRp260
tbg26
(g27
g22
g28
S'b'
tRp261
(I1
(tg25
I00
S'\x00\x00\x00\x00\x00\x00\xf0?'
g1
(g30
g31
(dp262
g47
I1
stRp263
tbg25
I01
g53
g26
(g27
g22
g28
S'b'
tRp264
(I1
(tg25
I00
S'\x00\x00\x00\x00\x00\x00\x00\x00'
g1
(g30
g31
(dp265
g47
I1
stRp266
tbNNNNN(dp267
g72
I553
sg73
g74
sg75
I16
sNNtRp268
ag19
(g20
g21
(g22
(I0
tS'b'
tRp269
(I1
(I0
tg25
I00
S''
tbg26
(g27
g22
g28
S'b'
tRp270
(I1
(tg25
I00
S'\x00\x00\x00\x00\x00t\xb3@'
g1
(g30
g31
(dp271
g47
I1
stRp272
tbg26
(g27
g22
g28
S'b'
tRp273
(I1
(tg25
I00
S'\x00\x00\x00\x00\x00\x00\xf0?'
g1
(g30
g31
(dp274
g47
I1
stRp275
tbg25
I01
g53
g26
(g27
g22
g28
S'b'
tRp276
(I1
(tg25
I00
S'\x00\x00\x00\x00\x00\x00\x00\x00'
g1
(g30
g31
(dp277
g47
I1
stRp278
tbNNNNN(dp279
g72
I554
sg73
g74
sg75
I17
sNNtRp280
ag19
(g20
g21
(g22
(I0
tS'b'
tRp281
(I1
(I0
tg25
I00
S''
tbg26
(g27
g22
g28
S'b'
tRp282
(I1
(tg25
I00
S'\x00\x00\x00\x00\x00t\xb3@'
g1
(g30
g31
(dp283
g47
I1
stRp284
tbg26
(g27
g22
g28
S'b'
tRp285
(I1
(tg25
I00
S'\x00\x00\x00\x00\x00\x00\xf0?'
g1
(g30
g31
(dp286
g47
I1
stRp287
tbg25
I01
g53
g26
(g27
g22
g28
S'b'
tRp288
(I1
(tg25
I00
S'\x00\x00\x00\x00\x00\x00\x00\x00'
g1
(g30
g31
(dp289
g47
I1
stRp290
tbNNNNN(dp291
g72
I555
sg73
g74
sg75
I18
sNNtRp292
ag19
(g20
g21
(g22
(I0
tS'b'
tRp293
(I1
(I0
tg25
I00
S''
tbg26
(g27
g22
g28
S'b'
tRp294
(I1
(tg25
I00
S'\x00\x00\x00\x00\x00t\xb3@'
g1
(g30
g31
(dp295
g47
I1
stRp296
tbg26
(g27
g22
g28
S'b'
tRp297
(I1
(tg25
I00
S'\x00\x00\x00\x00\x00\x00\xf0?'
g1
(g30
g31
(dp298
g47
I1
stRp299
tbg25
I01
g53
g26
(g27
g22
g28
S'b'
tRp300
(I1
(tg25
I00
S'\x00\x00\x00\x00\x00\x00\x00\x00'
g1
(g30
g31
(dp301
g47
I1
stRp302
tbNNNNN(dp303
g72
I556
sg73
g74
sg75
I19
sNNtRp304
asg7
VPopulation "population2"\u000a    Structure   : Line\u000a      y: 0.0\u000a      x0: 0.0\u000a      z: 0.0\u000a      dx: 1.0Local cells : 20\u000a    Cell type   : IF_cond_exp\u000a    ID range    : 537-556\u000a    First cell on this node:\u000a      ID: 537\u000a      
p305
sg9
NsS'file_origin'
p306
NsS'events'
p307
(lp308
sS'epochs'
p309
(lp310
sS'rec_datetime'
p311
cdatetime
datetime
p312
(S'\x07\xe3\x04\x18\x10\x15!\x0eeD'
tRp313
sS'irregularlysampledsignals'
p314
(lp315
sS'annotations'
p316
(dp317
sS'block'
p318
NsS'name'
p319
S'segment000'
p320
sbasg306
NsS'channel_indexes'
p321
(lp322
sg316
(dp323
S'size'
p324
I20
sS'first_id'
p325
I537
sS'simulator'
p326
S'NEST'
p327
sS'first_index'
p328
I0
sS'last_index'
p329
I20
sS'mpi_processes'
p330
I1
sS'dt'
p331
F1
sS'label'
p332
g74
sS'last_id'
p333
I556
ssg311
g313
sg319
g74
sb.